target datalayout = "e-m:e-p270:32:32-p271:32:32-p272:64:64-i64:64-i128:128-f80:128-n8:16:32:64-S128"
target triple = "x86_64-unknown-linux-gnu"

%"class.sat::literal" = type { i32 }

; Function Attrs: mustprogress uwtable
define hidden noundef zeroext i1 @_ZN3euf13th_euf_solver10add_clauseEN3sat7literalES2_PKNS_13th_proof_hintE(ptr noundef nonnull align 8 dereferenceable(108) %this, i32 %a.coerce, i32 %b.coerce, ptr noundef %ph) #5 align 2 {
entry:
  %a = alloca %"class.sat::literal", align 4
  %b = alloca %"class.sat::literal", align 4
  %this.addr = alloca ptr, align 8
  %ph.addr = alloca ptr, align 8
  %lits = alloca [2 x %"class.sat::literal"], align 4
  %coerce.dive = getelementptr inbounds %"class.sat::literal", ptr %a, i32 0, i32 0
  store i32 %a.coerce, ptr %coerce.dive, align 4
  %coerce.dive1 = getelementptr inbounds %"class.sat::literal", ptr %b, i32 0, i32 0
  store i32 %b.coerce, ptr %coerce.dive1, align 4
  store ptr %this, ptr %this.addr, align 8
  store ptr %ph, ptr %ph.addr, align 8
  %this2 = load ptr, ptr %this.addr, align 8
  %arrayinit.begin = getelementptr inbounds [2 x %"class.sat::literal"], ptr %lits, i64 0, i64 0
  call void @llvm.memcpy.p0.p0.i64(ptr align 4 %arrayinit.begin, ptr align 4 %a, i64 4, i1 false)
  %arrayinit.element = getelementptr inbounds %"class.sat::literal", ptr %arrayinit.begin, i64 1
  call void @llvm.memcpy.p0.p0.i64(ptr align 4 %arrayinit.element, ptr align 4 %b, i64 4, i1 false)
  %arraydecay = getelementptr inbounds [2 x %"class.sat::literal"], ptr %lits, i64 0, i64 0
  %0 = load ptr, ptr %ph.addr, align 8
  %call = call noundef zeroext i1 @_ZN3euf13th_euf_solver10add_clauseEjPN3sat7literalEPKNS_13th_proof_hintEb(ptr noundef nonnull align 8 dereferenceable(108) %this2, i32 noundef 2, ptr noundef %arraydecay, ptr noundef %0, i1 noundef zeroext false)
  ret i1 %call
}